; Function Attrs: mustprogress uwtable
define void @_ZN19OpenColorIO_v2_4dev13FileTransformC2Ev(ptr nocapture noundef nonnull writeonly align 8 dereferenceable(16) %this) unnamed_addr #3 align 2 personality ptr @__gxx_personality_v0 {
entry:
  store ptr getelementptr inbounds ({ [9 x ptr] }, ptr @_ZTVN19OpenColorIO_v2_4dev13FileTransformE, i64 0, i32 0, i64 2), ptr %this, align 8
  %call = tail call noalias noundef nonnull dereferenceable(80) ptr @_Znwm(i64 noundef 80) #27
  %m_impl = getelementptr inbounds i8, ptr %this, i64 8
  store i32 0, ptr %call, align 8
  %m_interp.i = getelementptr inbounds i8, ptr %call, i64 4
  store i32 254, ptr %m_interp.i, align 4
  %m_src.i = getelementptr inbounds i8, ptr %call, i64 8
  tail call void @_ZNSt7__cxx1112basic_stringIcSt11char_traitsIcESaIcEEC1Ev(ptr noundef nonnull align 8 dereferenceable(32) %m_src.i) #28
  %m_cccid.i = getelementptr inbounds i8, ptr %call, i64 40
  tail call void @_ZNSt7__cxx1112basic_stringIcSt11char_traitsIcESaIcEEC1Ev(ptr noundef nonnull align 8 dereferenceable(32) %m_cccid.i) #28
  %m_cdlStyle.i = getelementptr inbounds i8, ptr %call, i64 72
  store i32 1, ptr %m_cdlStyle.i, align 8
  store ptr %call, ptr %m_impl, align 8
  ret void
}